target datalayout = "e-m:e-p270:32:32-p271:32:32-p272:64:64-i64:64-i128:128-f80:128-n8:16:32:64-S128"
target triple = "x86_64-pc-linux-gnu"

%struct.ckh_t = type { i64, i64, i32, i32, ptr, ptr, ptr }
%struct.ckhc_t = type { ptr, ptr }

; Function Attrs: alwaysinline nounwind uwtable
define internal i64 @prng_state_next_u64(i64 noundef %0) #2 {
  %2 = alloca i64, align 8
  store i64 %0, ptr %2, align 8, !tbaa !9
  %3 = load i64, ptr %2, align 8, !tbaa !9
  %4 = mul i64 %3, 6364136223846793005
  %5 = add i64 %4, 1442695040888963407
  ret i64 %5
}

; Function Attrs: alwaysinline nounwind uwtable
define internal i64 @prng_lg_range_u64(ptr noundef %0, i32 noundef %1) #2 {
  %3 = alloca ptr, align 8
  %4 = alloca i32, align 4
  %5 = alloca i64, align 8
  store ptr %0, ptr %3, align 8, !tbaa !33
  store i32 %1, ptr %4, align 4, !tbaa !15
  br label %6

6:                                                ; preds = %2
  br label %7

7:                                                ; preds = %6
  br label %8

8:                                                ; preds = %7
  br label %9

9:                                                ; preds = %8
  %10 = load ptr, ptr %3, align 8, !tbaa !33
  %11 = load i64, ptr %10, align 8, !tbaa !9
  %12 = call i64 @prng_state_next_u64(i64 noundef %11)
  %13 = load ptr, ptr %3, align 8, !tbaa !33
  store i64 %12, ptr %13, align 8, !tbaa !9
  call void @llvm.lifetime.start.p0(i64 8, ptr %5) #11
  %14 = load ptr, ptr %3, align 8, !tbaa !33
  %15 = load i64, ptr %14, align 8, !tbaa !9
  %16 = load i32, ptr %4, align 4, !tbaa !15
  %17 = sub i32 64, %16
  %18 = zext i32 %17 to i64
  %19 = lshr i64 %15, %18
  store i64 %19, ptr %5, align 8, !tbaa !9
  %20 = load i64, ptr %5, align 8, !tbaa !9
  call void @llvm.lifetime.end.p0(i64 8, ptr %5) #11
  ret i64 %20
}

; Function Attrs: nounwind uwtable
define internal zeroext i1 @ckh_evict_reloc_insert(ptr noundef %0, i64 noundef %1, ptr noundef %2, ptr noundef %3) #0 {
  %5 = alloca i1, align 1
  %6 = alloca ptr, align 8
  %7 = alloca i64, align 8
  %8 = alloca ptr, align 8
  %9 = alloca ptr, align 8
  %10 = alloca ptr, align 8
  %11 = alloca ptr, align 8
  %12 = alloca ptr, align 8
  %13 = alloca ptr, align 8
  %14 = alloca ptr, align 8
  %15 = alloca [2 x i64], align 16
  %16 = alloca i64, align 8
  %17 = alloca i64, align 8
  %18 = alloca i32, align 4
  %19 = alloca i32, align 4
  store ptr %0, ptr %6, align 8, !tbaa !8
  store i64 %1, ptr %7, align 8, !tbaa !9
  store ptr %2, ptr %8, align 8, !tbaa !8
  store ptr %3, ptr %9, align 8, !tbaa !8
  call void @llvm.lifetime.start.p0(i64 8, ptr %10) #11
  call void @llvm.lifetime.start.p0(i64 8, ptr %11) #11
  call void @llvm.lifetime.start.p0(i64 8, ptr %12) #11
  call void @llvm.lifetime.start.p0(i64 8, ptr %13) #11
  call void @llvm.lifetime.start.p0(i64 8, ptr %14) #11
  call void @llvm.lifetime.start.p0(i64 16, ptr %15) #11
  call void @llvm.lifetime.start.p0(i64 8, ptr %16) #11
  call void @llvm.lifetime.start.p0(i64 8, ptr %17) #11
  call void @llvm.lifetime.start.p0(i64 4, ptr %18) #11
  %20 = load i64, ptr %7, align 8, !tbaa !9
  store i64 %20, ptr %16, align 8, !tbaa !9
  %21 = load ptr, ptr %8, align 8, !tbaa !8
  %22 = load ptr, ptr %21, align 8, !tbaa !8
  store ptr %22, ptr %10, align 8, !tbaa !8
  %23 = load ptr, ptr %9, align 8, !tbaa !8
  %24 = load ptr, ptr %23, align 8, !tbaa !8
  store ptr %24, ptr %11, align 8, !tbaa !8
  br label %25

25:                                               ; preds = %101, %4
  br label %26

26:                                               ; preds = %25
  %27 = load ptr, ptr %6, align 8, !tbaa !8
  %28 = getelementptr inbounds nuw %struct.ckh_t, ptr %27, i32 0, i32 0
  %29 = call i64 @prng_lg_range_u64(ptr noundef %28, i32 noundef 2)
  %30 = trunc i64 %29 to i32
  store i32 %30, ptr %18, align 4, !tbaa !15
  %31 = load ptr, ptr %6, align 8, !tbaa !8
  %32 = getelementptr inbounds nuw %struct.ckh_t, ptr %31, i32 0, i32 6
  %33 = load ptr, ptr %32, align 8, !tbaa !22
  %34 = load i64, ptr %16, align 8, !tbaa !9
  %35 = shl i64 %34, 2
  %36 = load i32, ptr %18, align 4, !tbaa !15
  %37 = zext i32 %36 to i64
  %38 = add i64 %35, %37
  %39 = getelementptr inbounds nuw %struct.ckhc_t, ptr %33, i64 %38
  store ptr %39, ptr %14, align 8, !tbaa !8
  br label %40

40:                                               ; preds = %26
  br label %41

41:                                               ; preds = %40
  br label %42

42:                                               ; preds = %41
  %43 = load ptr, ptr %14, align 8, !tbaa !8
  %44 = getelementptr inbounds nuw %struct.ckhc_t, ptr %43, i32 0, i32 0
  %45 = load ptr, ptr %44, align 8, !tbaa !35
  store ptr %45, ptr %12, align 8, !tbaa !8
  %46 = load ptr, ptr %14, align 8, !tbaa !8
  %47 = getelementptr inbounds nuw %struct.ckhc_t, ptr %46, i32 0, i32 1
  %48 = load ptr, ptr %47, align 8, !tbaa !37
  store ptr %48, ptr %13, align 8, !tbaa !8
  %49 = load ptr, ptr %10, align 8, !tbaa !8
  %50 = load ptr, ptr %14, align 8, !tbaa !8
  %51 = getelementptr inbounds nuw %struct.ckhc_t, ptr %50, i32 0, i32 0
  store ptr %49, ptr %51, align 8, !tbaa !35
  %52 = load ptr, ptr %11, align 8, !tbaa !8
  %53 = load ptr, ptr %14, align 8, !tbaa !8
  %54 = getelementptr inbounds nuw %struct.ckhc_t, ptr %53, i32 0, i32 1
  store ptr %52, ptr %54, align 8, !tbaa !37
  %55 = load ptr, ptr %12, align 8, !tbaa !8
  store ptr %55, ptr %10, align 8, !tbaa !8
  %56 = load ptr, ptr %13, align 8, !tbaa !8
  store ptr %56, ptr %11, align 8, !tbaa !8
  %57 = load ptr, ptr %6, align 8, !tbaa !8
  %58 = getelementptr inbounds nuw %struct.ckh_t, ptr %57, i32 0, i32 4
  %59 = load ptr, ptr %58, align 8, !tbaa !18
  %60 = load ptr, ptr %10, align 8, !tbaa !8
  %61 = getelementptr inbounds [2 x i64], ptr %15, i64 0, i64 0
  call void %59(ptr noundef %60, ptr noundef %61)
  %62 = getelementptr inbounds [2 x i64], ptr %15, i64 0, i64 1
  %63 = load i64, ptr %62, align 8, !tbaa !9
  %64 = load ptr, ptr %6, align 8, !tbaa !8
  %65 = getelementptr inbounds nuw %struct.ckh_t, ptr %64, i32 0, i32 3
  %66 = load i32, ptr %65, align 4, !tbaa !17
  %67 = zext i32 %66 to i64
  %68 = shl i64 1, %67
  %69 = sub i64 %68, 1
  %70 = and i64 %63, %69
  store i64 %70, ptr %17, align 8, !tbaa !9
  %71 = load i64, ptr %17, align 8, !tbaa !9
  %72 = load i64, ptr %16, align 8, !tbaa !9
  %73 = icmp eq i64 %71, %72
  br i1 %73, label %74, label %84

74:                                               ; preds = %42
  %75 = getelementptr inbounds [2 x i64], ptr %15, i64 0, i64 0
  %76 = load i64, ptr %75, align 16, !tbaa !9
  %77 = load ptr, ptr %6, align 8, !tbaa !8
  %78 = getelementptr inbounds nuw %struct.ckh_t, ptr %77, i32 0, i32 3
  %79 = load i32, ptr %78, align 4, !tbaa !17
  %80 = zext i32 %79 to i64
  %81 = shl i64 1, %80
  %82 = sub i64 %81, 1
  %83 = and i64 %76, %82
  store i64 %83, ptr %17, align 8, !tbaa !9
  br label %84

84:                                               ; preds = %74, %42
  %85 = load i64, ptr %17, align 8, !tbaa !9
  %86 = load i64, ptr %7, align 8, !tbaa !9
  %87 = icmp eq i64 %85, %86
  br i1 %87, label %88, label %93

88:                                               ; preds = %84
  %89 = load ptr, ptr %10, align 8, !tbaa !8
  %90 = load ptr, ptr %8, align 8, !tbaa !8
  store ptr %89, ptr %90, align 8, !tbaa !8
  %91 = load ptr, ptr %11, align 8, !tbaa !8
  %92 = load ptr, ptr %9, align 8, !tbaa !8
  store ptr %91, ptr %92, align 8, !tbaa !8
  store i1 true, ptr %5, align 1
  store i32 1, ptr %19, align 4
  br label %102

93:                                               ; preds = %84
  %94 = load i64, ptr %17, align 8, !tbaa !9
  store i64 %94, ptr %16, align 8, !tbaa !9
  %95 = load ptr, ptr %6, align 8, !tbaa !8
  %96 = load i64, ptr %16, align 8, !tbaa !9
  %97 = load ptr, ptr %10, align 8, !tbaa !8
  %98 = load ptr, ptr %11, align 8, !tbaa !8
  %99 = call zeroext i1 @ckh_try_bucket_insert(ptr noundef %95, i64 noundef %96, ptr noundef %97, ptr noundef %98)
  br i1 %99, label %101, label %100

100:                                              ; preds = %93
  store i1 false, ptr %5, align 1
  store i32 1, ptr %19, align 4
  br label %102

101:                                              ; preds = %93
  br label %25

102:                                              ; preds = %100, %88
  call void @llvm.lifetime.end.p0(i64 4, ptr %18) #11
  call void @llvm.lifetime.end.p0(i64 8, ptr %17) #11
  call void @llvm.lifetime.end.p0(i64 8, ptr %16) #11
  call void @llvm.lifetime.end.p0(i64 16, ptr %15) #11
  call void @llvm.lifetime.end.p0(i64 8, ptr %14) #11
  call void @llvm.lifetime.end.p0(i64 8, ptr %13) #11
  call void @llvm.lifetime.end.p0(i64 8, ptr %12) #11
  call void @llvm.lifetime.end.p0(i64 8, ptr %11) #11
  call void @llvm.lifetime.end.p0(i64 8, ptr %10) #11
  %103 = load i1, ptr %5, align 1
  ret i1 %103
}

; Function Attrs: nounwind uwtable
define internal zeroext i1 @ckh_try_bucket_insert(ptr noundef %0, i64 noundef %1, ptr noundef %2, ptr noundef %3) #0 {
  %5 = alloca i1, align 1
  %6 = alloca ptr, align 8
  %7 = alloca i64, align 8
  %8 = alloca ptr, align 8
  %9 = alloca ptr, align 8
  %10 = alloca ptr, align 8
  %11 = alloca i32, align 4
  %12 = alloca i32, align 4
  %13 = alloca i32, align 4
  store ptr %0, ptr %6, align 8, !tbaa !8
  store i64 %1, ptr %7, align 8, !tbaa !9
  store ptr %2, ptr %8, align 8, !tbaa !8
  store ptr %3, ptr %9, align 8, !tbaa !8
  call void @llvm.lifetime.start.p0(i64 8, ptr %10) #11
  call void @llvm.lifetime.start.p0(i64 4, ptr %11) #11
  call void @llvm.lifetime.start.p0(i64 4, ptr %12) #11
  %14 = load ptr, ptr %6, align 8, !tbaa !8
  %15 = getelementptr inbounds nuw %struct.ckh_t, ptr %14, i32 0, i32 0
  %16 = call i64 @prng_lg_range_u64(ptr noundef %15, i32 noundef 2)
  %17 = trunc i64 %16 to i32
  store i32 %17, ptr %11, align 4, !tbaa !15
  store i32 0, ptr %12, align 4, !tbaa !15
  br label %18

18:                                               ; preds = %51, %4
  %19 = load i32, ptr %12, align 4, !tbaa !15
  %20 = zext i32 %19 to i64
  %21 = icmp ult i64 %20, 4
  br i1 %21, label %22, label %54

22:                                               ; preds = %18
  %23 = load ptr, ptr %6, align 8, !tbaa !8
  %24 = getelementptr inbounds nuw %struct.ckh_t, ptr %23, i32 0, i32 6
  %25 = load ptr, ptr %24, align 8, !tbaa !22
  %26 = load i64, ptr %7, align 8, !tbaa !9
  %27 = shl i64 %26, 2
  %28 = load i32, ptr %12, align 4, !tbaa !15
  %29 = load i32, ptr %11, align 4, !tbaa !15
  %30 = add i32 %28, %29
  %31 = zext i32 %30 to i64
  %32 = and i64 %31, 3
  %33 = add i64 %27, %32
  %34 = getelementptr inbounds nuw %struct.ckhc_t, ptr %25, i64 %33
  store ptr %34, ptr %10, align 8, !tbaa !8
  %35 = load ptr, ptr %10, align 8, !tbaa !8
  %36 = getelementptr inbounds nuw %struct.ckhc_t, ptr %35, i32 0, i32 0
  %37 = load ptr, ptr %36, align 8, !tbaa !35
  %38 = icmp eq ptr %37, null
  br i1 %38, label %39, label %50

39:                                               ; preds = %22
  %40 = load ptr, ptr %8, align 8, !tbaa !8
  %41 = load ptr, ptr %10, align 8, !tbaa !8
  %42 = getelementptr inbounds nuw %struct.ckhc_t, ptr %41, i32 0, i32 0
  store ptr %40, ptr %42, align 8, !tbaa !35
  %43 = load ptr, ptr %9, align 8, !tbaa !8
  %44 = load ptr, ptr %10, align 8, !tbaa !8
  %45 = getelementptr inbounds nuw %struct.ckhc_t, ptr %44, i32 0, i32 1
  store ptr %43, ptr %45, align 8, !tbaa !37
  %46 = load ptr, ptr %6, align 8, !tbaa !8
  %47 = getelementptr inbounds nuw %struct.ckh_t, ptr %46, i32 0, i32 1
  %48 = load i64, ptr %47, align 8, !tbaa !14
  %49 = add i64 %48, 1
  store i64 %49, ptr %47, align 8, !tbaa !14
  store i1 false, ptr %5, align 1
  store i32 1, ptr %13, align 4
  br label %55

50:                                               ; preds = %22
  br label %51

51:                                               ; preds = %50
  %52 = load i32, ptr %12, align 4, !tbaa !15
  %53 = add i32 %52, 1
  store i32 %53, ptr %12, align 4, !tbaa !15
  br label %18

54:                                               ; preds = %18
  store i1 true, ptr %5, align 1
  store i32 1, ptr %13, align 4
  br label %55

55:                                               ; preds = %54, %39
  call void @llvm.lifetime.end.p0(i64 4, ptr %12) #11
  call void @llvm.lifetime.end.p0(i64 4, ptr %11) #11
  call void @llvm.lifetime.end.p0(i64 8, ptr %10) #11
  %56 = load i1, ptr %5, align 1
  ret i1 %56
}

; Function Attrs: nounwind uwtable
define internal zeroext i1 @ckh_try_insert(ptr noundef %0, ptr noundef %1, ptr noundef %2) #0 {
  %4 = alloca i1, align 1
  %5 = alloca ptr, align 8
  %6 = alloca ptr, align 8
  %7 = alloca ptr, align 8
  %8 = alloca [2 x i64], align 16
  %9 = alloca i64, align 8
  %10 = alloca ptr, align 8
  %11 = alloca ptr, align 8
  %12 = alloca i32, align 4
  store ptr %0, ptr %5, align 8, !tbaa !8
  store ptr %1, ptr %6, align 8, !tbaa !8
  store ptr %2, ptr %7, align 8, !tbaa !8
  call void @llvm.lifetime.start.p0(i64 16, ptr %8) #11
  call void @llvm.lifetime.start.p0(i64 8, ptr %9) #11
  call void @llvm.lifetime.start.p0(i64 8, ptr %10) #11
  %13 = load ptr, ptr %6, align 8, !tbaa !8
  %14 = load ptr, ptr %13, align 8, !tbaa !8
  store ptr %14, ptr %10, align 8, !tbaa !8
  call void @llvm.lifetime.start.p0(i64 8, ptr %11) #11
  %15 = load ptr, ptr %7, align 8, !tbaa !8
  %16 = load ptr, ptr %15, align 8, !tbaa !8
  store ptr %16, ptr %11, align 8, !tbaa !8
  %17 = load ptr, ptr %5, align 8, !tbaa !8
  %18 = getelementptr inbounds nuw %struct.ckh_t, ptr %17, i32 0, i32 4
  %19 = load ptr, ptr %18, align 8, !tbaa !18
  %20 = load ptr, ptr %10, align 8, !tbaa !8
  %21 = getelementptr inbounds [2 x i64], ptr %8, i64 0, i64 0
  call void %19(ptr noundef %20, ptr noundef %21)
  %22 = getelementptr inbounds [2 x i64], ptr %8, i64 0, i64 0
  %23 = load i64, ptr %22, align 16, !tbaa !9
  %24 = load ptr, ptr %5, align 8, !tbaa !8
  %25 = getelementptr inbounds nuw %struct.ckh_t, ptr %24, i32 0, i32 3
  %26 = load i32, ptr %25, align 4, !tbaa !17
  %27 = zext i32 %26 to i64
  %28 = shl i64 1, %27
  %29 = sub i64 %28, 1
  %30 = and i64 %23, %29
  store i64 %30, ptr %9, align 8, !tbaa !9
  %31 = load ptr, ptr %5, align 8, !tbaa !8
  %32 = load i64, ptr %9, align 8, !tbaa !9
  %33 = load ptr, ptr %10, align 8, !tbaa !8
  %34 = load ptr, ptr %11, align 8, !tbaa !8
  %35 = call zeroext i1 @ckh_try_bucket_insert(ptr noundef %31, i64 noundef %32, ptr noundef %33, ptr noundef %34)
  br i1 %35, label %37, label %36

36:                                               ; preds = %3
  store i1 false, ptr %4, align 1
  store i32 1, ptr %12, align 4
  br label %59

37:                                               ; preds = %3
  %38 = getelementptr inbounds [2 x i64], ptr %8, i64 0, i64 1
  %39 = load i64, ptr %38, align 8, !tbaa !9
  %40 = load ptr, ptr %5, align 8, !tbaa !8
  %41 = getelementptr inbounds nuw %struct.ckh_t, ptr %40, i32 0, i32 3
  %42 = load i32, ptr %41, align 4, !tbaa !17
  %43 = zext i32 %42 to i64
  %44 = shl i64 1, %43
  %45 = sub i64 %44, 1
  %46 = and i64 %39, %45
  store i64 %46, ptr %9, align 8, !tbaa !9
  %47 = load ptr, ptr %5, align 8, !tbaa !8
  %48 = load i64, ptr %9, align 8, !tbaa !9
  %49 = load ptr, ptr %10, align 8, !tbaa !8
  %50 = load ptr, ptr %11, align 8, !tbaa !8
  %51 = call zeroext i1 @ckh_try_bucket_insert(ptr noundef %47, i64 noundef %48, ptr noundef %49, ptr noundef %50)
  br i1 %51, label %53, label %52

52:                                               ; preds = %37
  store i1 false, ptr %4, align 1
  store i32 1, ptr %12, align 4
  br label %59

53:                                               ; preds = %37
  %54 = load ptr, ptr %5, align 8, !tbaa !8
  %55 = load i64, ptr %9, align 8, !tbaa !9
  %56 = load ptr, ptr %6, align 8, !tbaa !8
  %57 = load ptr, ptr %7, align 8, !tbaa !8
  %58 = call zeroext i1 @ckh_evict_reloc_insert(ptr noundef %54, i64 noundef %55, ptr noundef %56, ptr noundef %57)
  store i1 %58, ptr %4, align 1
  store i32 1, ptr %12, align 4
  br label %59

59:                                               ; preds = %53, %52, %36
  call void @llvm.lifetime.end.p0(i64 8, ptr %11) #11
  call void @llvm.lifetime.end.p0(i64 8, ptr %10) #11
  call void @llvm.lifetime.end.p0(i64 8, ptr %9) #11
  call void @llvm.lifetime.end.p0(i64 16, ptr %8) #11
  %60 = load i1, ptr %4, align 1
  ret i1 %60
}