; Function Attrs: nounwind uwtable
define internal fastcc noundef zeroext i1 @ckh_try_insert(ptr noundef captures(none) %0, ptr noundef nonnull captures(none) %1, ptr noundef nonnull captures(none) %2) unnamed_addr #0 {
  %4 = alloca [2 x i64], align 16
  %5 = alloca [2 x i64], align 16
  call void @llvm.lifetime.start.p0(i64 16, ptr nonnull %5) #15
  %6 = load ptr, ptr %1, align 8, !tbaa !63
  %7 = load ptr, ptr %2, align 8, !tbaa !63
  %8 = getelementptr inbounds nuw i8, ptr %0, i64 24
  %9 = load ptr, ptr %8, align 8, !tbaa !13
  call void %9(ptr noundef %6, ptr noundef nonnull %5) #15
  %10 = load i64, ptr %5, align 16, !tbaa !17
  %11 = getelementptr inbounds nuw i8, ptr %0, i64 20
  %12 = load i32, ptr %11, align 4, !tbaa !12
  %13 = zext nneg i32 %12 to i64
  %notmask = shl nsw i64 -1, %13
  %14 = xor i64 %notmask, -1
  %15 = and i64 %10, %14
  %16 = load i64, ptr %0, align 8, !tbaa !17
  %17 = mul i64 %16, 6364136223846793005
  %18 = add i64 %17, 1442695040888963407
  store i64 %18, ptr %0, align 8, !tbaa !17
  %19 = lshr i64 %18, 62
  %20 = trunc nuw nsw i64 %19 to i32
  %21 = getelementptr inbounds nuw i8, ptr %0, i64 40
  %22 = load ptr, ptr %21, align 8, !tbaa !51
  %23 = shl i64 %15, 2
  br label %26

24:                                               ; preds = %26
  %25 = add nuw nsw i32 %.016.i, 1
  %exitcond.i = icmp eq i32 %25, 4
  br i1 %exitcond.i, label %37, label %26

26:                                               ; preds = %24, %3
  %.016.i = phi i32 [ 0, %3 ], [ %25, %24 ]
  %27 = add nuw nsw i32 %.016.i, %20
  %28 = and i32 %27, 3
  %29 = zext nneg i32 %28 to i64
  %30 = or disjoint i64 %23, %29
  %31 = getelementptr inbounds nuw %struct.ckhc_t, ptr %22, i64 %30
  %32 = load ptr, ptr %31, align 8, !tbaa !61
  %.not.not.i.not = icmp eq ptr %32, null
  br i1 %.not.not.i.not, label %ckh_try_bucket_insert.exit, label %24

ckh_try_bucket_insert.exit:                       ; preds = %26
  store ptr %6, ptr %31, align 8, !tbaa !61
  %33 = getelementptr inbounds nuw i8, ptr %31, i64 8
  store ptr %7, ptr %33, align 8, !tbaa !64
  %34 = getelementptr inbounds nuw i8, ptr %0, i64 8
  %35 = load i64, ptr %34, align 8, !tbaa !10
  %36 = add i64 %35, 1
  store i64 %36, ptr %34, align 8, !tbaa !10
  br label %104

37:                                               ; preds = %24
  %38 = getelementptr inbounds nuw i8, ptr %5, i64 8
  %39 = load i64, ptr %38, align 8, !tbaa !17
  %40 = and i64 %39, %14
  %41 = mul i64 %18, 6364136223846793005
  %42 = add i64 %41, 1442695040888963407
  store i64 %42, ptr %0, align 8, !tbaa !17
  %43 = lshr i64 %42, 62
  %44 = trunc nuw nsw i64 %43 to i32
  %45 = shl i64 %40, 2
  br label %48

46:                                               ; preds = %48
  %47 = add nuw nsw i32 %.016.i19, 1
  %exitcond.i21 = icmp eq i32 %47, 4
  br i1 %exitcond.i21, label %59, label %48

48:                                               ; preds = %46, %37
  %.016.i19 = phi i32 [ 0, %37 ], [ %47, %46 ]
  %49 = add nuw nsw i32 %.016.i19, %44
  %50 = and i32 %49, 3
  %51 = zext nneg i32 %50 to i64
  %52 = or disjoint i64 %45, %51
  %53 = getelementptr inbounds nuw %struct.ckhc_t, ptr %22, i64 %52
  %54 = load ptr, ptr %53, align 8, !tbaa !61
  %.not.not.i20.not = icmp eq ptr %54, null
  br i1 %.not.not.i20.not, label %ckh_try_bucket_insert.exit22, label %46

ckh_try_bucket_insert.exit22:                     ; preds = %48
  store ptr %6, ptr %53, align 8, !tbaa !61
  %55 = getelementptr inbounds nuw i8, ptr %53, i64 8
  store ptr %7, ptr %55, align 8, !tbaa !64
  %56 = getelementptr inbounds nuw i8, ptr %0, i64 8
  %57 = load i64, ptr %56, align 8, !tbaa !10
  %58 = add i64 %57, 1
  store i64 %58, ptr %56, align 8, !tbaa !10
  br label %104

59:                                               ; preds = %46
  call void @llvm.lifetime.start.p0(i64 16, ptr nonnull %4) #15
  %60 = load ptr, ptr %1, align 8, !tbaa !63
  %61 = load ptr, ptr %2, align 8, !tbaa !63
  %62 = getelementptr inbounds nuw i8, ptr %4, i64 8
  br label %ckh_try_bucket_insert.exit.i

ckh_try_bucket_insert.exit.i:                     ; preds = %91, %59
  %63 = phi ptr [ %22, %59 ], [ %89, %91 ]
  %64 = phi i64 [ %42, %59 ], [ %86, %91 ]
  %.035.i = phi ptr [ %61, %59 ], [ %71, %91 ]
  %.034.i = phi ptr [ %60, %59 ], [ %69, %91 ]
  %.033.i = phi i64 [ %40, %59 ], [ %.032.i, %91 ]
  %65 = mul i64 %64, 6364136223846793005
  %66 = add i64 %65, 1442695040888963407
  store i64 %66, ptr %0, align 8, !tbaa !17
  %67 = call i64 @llvm.fshl.i64(i64 %.033.i, i64 %66, i64 2)
  %68 = getelementptr inbounds nuw %struct.ckhc_t, ptr %63, i64 %67
  %69 = load ptr, ptr %68, align 8, !tbaa !61
  %70 = getelementptr inbounds nuw i8, ptr %68, i64 8
  %71 = load ptr, ptr %70, align 8, !tbaa !64
  store ptr %.034.i, ptr %68, align 8, !tbaa !61
  store ptr %.035.i, ptr %70, align 8, !tbaa !64
  %72 = load ptr, ptr %8, align 8, !tbaa !13
  call void %72(ptr noundef %69, ptr noundef nonnull %4) #15
  %73 = load i64, ptr %62, align 8, !tbaa !17
  %74 = load i32, ptr %11, align 4, !tbaa !12
  %75 = zext nneg i32 %74 to i64
  %notmask.i = shl nsw i64 -1, %75
  %76 = xor i64 %notmask.i, -1
  %77 = and i64 %73, %76
  %78 = icmp eq i64 %77, %.033.i
  %79 = load i64, ptr %4, align 16
  %80 = and i64 %79, %76
  %.032.i = select i1 %78, i64 %80, i64 %77
  %81 = icmp eq i64 %.032.i, %40
  br i1 %81, label %82, label %83

82:                                               ; preds = %ckh_try_bucket_insert.exit.i
  store ptr %69, ptr %1, align 8, !tbaa !63
  store ptr %71, ptr %2, align 8, !tbaa !63
  br label %ckh_evict_reloc_insert.exit

83:                                               ; preds = %ckh_try_bucket_insert.exit.i
  %84 = load i64, ptr %0, align 8, !tbaa !17
  %85 = mul i64 %84, 6364136223846793005
  %86 = add i64 %85, 1442695040888963407
  store i64 %86, ptr %0, align 8, !tbaa !17
  %87 = lshr i64 %86, 62
  %88 = trunc nuw nsw i64 %87 to i32
  %89 = load ptr, ptr %21, align 8, !tbaa !51
  %90 = shl i64 %.032.i, 2
  br label %93

91:                                               ; preds = %93
  %92 = add nuw nsw i32 %.016.i.i, 1
  %exitcond.i.i = icmp eq i32 %92, 4
  br i1 %exitcond.i.i, label %ckh_try_bucket_insert.exit.i, label %93

93:                                               ; preds = %91, %83
  %.016.i.i = phi i32 [ 0, %83 ], [ %92, %91 ]
  %94 = add nuw nsw i32 %.016.i.i, %88
  %95 = and i32 %94, 3
  %96 = zext nneg i32 %95 to i64
  %97 = or disjoint i64 %90, %96
  %98 = getelementptr inbounds nuw %struct.ckhc_t, ptr %89, i64 %97
  %99 = load ptr, ptr %98, align 8, !tbaa !61
  %.not.not.i.not.i = icmp eq ptr %99, null
  br i1 %.not.not.i.not.i, label %ckh_try_bucket_insert.exit.thread.i, label %91

ckh_try_bucket_insert.exit.thread.i:              ; preds = %93
  store ptr %69, ptr %98, align 8, !tbaa !61
  %100 = getelementptr inbounds nuw i8, ptr %98, i64 8
  store ptr %71, ptr %100, align 8, !tbaa !64
  %101 = getelementptr inbounds nuw i8, ptr %0, i64 8
  %102 = load i64, ptr %101, align 8, !tbaa !10
  %103 = add i64 %102, 1
  store i64 %103, ptr %101, align 8, !tbaa !10
  br label %ckh_evict_reloc_insert.exit

ckh_evict_reloc_insert.exit:                      ; preds = %82, %ckh_try_bucket_insert.exit.thread.i
  call void @llvm.lifetime.end.p0(i64 16, ptr nonnull %4) #15
  br label %104

104:                                              ; preds = %ckh_try_bucket_insert.exit22, %ckh_try_bucket_insert.exit, %ckh_evict_reloc_insert.exit
  %.0 = phi i1 [ %81, %ckh_evict_reloc_insert.exit ], [ false, %ckh_try_bucket_insert.exit ], [ false, %ckh_try_bucket_insert.exit22 ]
  call void @llvm.lifetime.end.p0(i64 16, ptr nonnull %5) #15
  ret i1 %.0
}